target datalayout = "e-m:e-p270:32:32-p271:32:32-p272:64:64-i64:64-i128:128-f80:128-n8:16:32:64-S128"
target triple = "x86_64-unknown-linux-gnu"

%class.grobner = type <{ %struct.grobner_stats, ptr, ptr, %class.arith_util, %class.obj_map, %"struct.grobner::var_lt", %"struct.grobner::monomial_lt", %class.obj_hashtable, %class.obj_hashtable, %class.ptr_vector, %class.ptr_vector, i8, [7 x i8], ptr, %class.svector, %class.ptr_vector.3, %class.ptr_vector.3, %class.ptr_vector.5, %class.ptr_vector.5, i32, [4 x i8] }>
%struct.grobner_stats = type { i64, i64, i64, i64 }
%class.arith_util = type { ptr, ptr }
%class.obj_map = type { %class.core_hashtable }
%class.core_hashtable = type <{ ptr, i32, i32, i32, [4 x i8] }>
%"struct.grobner::var_lt" = type { ptr }
%"struct.grobner::monomial_lt" = type { ptr }
%class.obj_hashtable = type { %class.core_hashtable.base.1, [4 x i8] }
%class.core_hashtable.base.1 = type <{ ptr, i32, i32, i32 }>
%class.ptr_vector = type { %class.vector }
%class.vector = type { ptr }
%class.svector = type { %class.vector.2 }
%class.vector.2 = type { ptr }
%class.ptr_vector.3 = type { %class.vector.4 }
%class.vector.4 = type { ptr }
%class.ptr_vector.5 = type { %class.vector.6 }
%class.vector.6 = type { ptr }
%"class.grobner::monomial" = type { %class.rational, %class.ptr_vector.5 }
%class.rational = type { %class.mpq }
%class.mpq = type { %class.mpz, %class.mpz }
%class.mpz = type { i32, i8, ptr }

; Function Attrs: mustprogress uwtable
define linkonce_odr hidden noundef nonnull align 8 dereferenceable(8) ptr @_ZN6vectorIP4exprLb0EjE9push_backERKS1_(ptr noundef nonnull align 8 dereferenceable(8) %this, ptr noundef nonnull align 8 dereferenceable(8) %elem) #4 comdat align 2 {
entry:
  %this.addr = alloca ptr, align 8
  %elem.addr = alloca ptr, align 8
  store ptr %this, ptr %this.addr, align 8
  store ptr %elem, ptr %elem.addr, align 8
  %this1 = load ptr, ptr %this.addr, align 8
  %m_data = getelementptr inbounds %class.vector.6, ptr %this1, i32 0, i32 0
  %0 = load ptr, ptr %m_data, align 8
  %cmp = icmp eq ptr %0, null
  br i1 %cmp, label %if.then, label %lor.lhs.false

lor.lhs.false:                                    ; preds = %entry
  %m_data2 = getelementptr inbounds %class.vector.6, ptr %this1, i32 0, i32 0
  %1 = load ptr, ptr %m_data2, align 8
  %arrayidx = getelementptr inbounds i32, ptr %1, i64 -1
  %2 = load i32, ptr %arrayidx, align 4
  %m_data3 = getelementptr inbounds %class.vector.6, ptr %this1, i32 0, i32 0
  %3 = load ptr, ptr %m_data3, align 8
  %arrayidx4 = getelementptr inbounds i32, ptr %3, i64 -2
  %4 = load i32, ptr %arrayidx4, align 4
  %cmp5 = icmp eq i32 %2, %4
  br i1 %cmp5, label %if.then, label %if.end

if.then:                                          ; preds = %lor.lhs.false, %entry
  call void @_ZN6vectorIP4exprLb0EjE13expand_vectorEv(ptr noundef nonnull align 8 dereferenceable(8) %this1)
  br label %if.end

if.end:                                           ; preds = %if.then, %lor.lhs.false
  %m_data6 = getelementptr inbounds %class.vector.6, ptr %this1, i32 0, i32 0
  %5 = load ptr, ptr %m_data6, align 8
  %m_data7 = getelementptr inbounds %class.vector.6, ptr %this1, i32 0, i32 0
  %6 = load ptr, ptr %m_data7, align 8
  %arrayidx8 = getelementptr inbounds i32, ptr %6, i64 -1
  %7 = load i32, ptr %arrayidx8, align 4
  %idx.ext = zext i32 %7 to i64
  %add.ptr = getelementptr inbounds ptr, ptr %5, i64 %idx.ext
  %8 = load ptr, ptr %elem.addr, align 8
  %9 = load ptr, ptr %8, align 8
  store ptr %9, ptr %add.ptr, align 8
  %m_data9 = getelementptr inbounds %class.vector.6, ptr %this1, i32 0, i32 0
  %10 = load ptr, ptr %m_data9, align 8
  %arrayidx10 = getelementptr inbounds i32, ptr %10, i64 -1
  %11 = load i32, ptr %arrayidx10, align 4
  %inc = add i32 %11, 1
  store i32 %inc, ptr %arrayidx10, align 4
  ret ptr %this1
}

; Function Attrs: mustprogress nounwind uwtable
define linkonce_odr hidden noundef nonnull align 8 dereferenceable(8) ptr @_ZNK6vectorIP4exprLb0EjEixEj(ptr noundef nonnull align 8 dereferenceable(8) %this, i32 noundef %idx) #5 comdat align 2 {
entry:
  %this.addr = alloca ptr, align 8
  %idx.addr = alloca i32, align 4
  store ptr %this, ptr %this.addr, align 8
  store i32 %idx, ptr %idx.addr, align 4
  %this1 = load ptr, ptr %this.addr, align 8
  %m_data = getelementptr inbounds %class.vector.6, ptr %this1, i32 0, i32 0
  %0 = load ptr, ptr %m_data, align 8
  %1 = load i32, ptr %idx.addr, align 4
  %idxprom = zext i32 %1 to i64
  %arrayidx = getelementptr inbounds ptr, ptr %0, i64 %idxprom
  ret ptr %arrayidx
}

; Function Attrs: mustprogress nounwind uwtable
define linkonce_odr hidden noundef i32 @_ZNK6vectorIP4exprLb0EjE4sizeEv(ptr noundef nonnull align 8 dereferenceable(8) %this) #5 comdat align 2 {
entry:
  %retval = alloca i32, align 4
  %this.addr = alloca ptr, align 8
  store ptr %this, ptr %this.addr, align 8
  %this1 = load ptr, ptr %this.addr, align 8
  %m_data = getelementptr inbounds %class.vector.6, ptr %this1, i32 0, i32 0
  %0 = load ptr, ptr %m_data, align 8
  %cmp = icmp eq ptr %0, null
  br i1 %cmp, label %if.then, label %if.end

if.then:                                          ; preds = %entry
  store i32 0, ptr %retval, align 4
  br label %return

if.end:                                           ; preds = %entry
  %m_data2 = getelementptr inbounds %class.vector.6, ptr %this1, i32 0, i32 0
  %1 = load ptr, ptr %m_data2, align 8
  %arrayidx = getelementptr inbounds i32, ptr %1, i64 -1
  %2 = load i32, ptr %arrayidx, align 4
  store i32 %2, ptr %retval, align 4
  br label %return

return:                                           ; preds = %if.end, %if.then
  %3 = load i32, ptr %retval, align 4
  ret i32 %3
}

; Function Attrs: mustprogress uwtable
define hidden noundef zeroext i1 @_ZNK7grobner9is_subsetEPKNS_8monomialES2_R10ptr_vectorI4exprE(ptr noundef nonnull align 8 dereferenceable(228) %this, ptr noundef %m1, ptr noundef %m2, ptr noundef nonnull align 8 dereferenceable(8) %rest) #4 align 2 {
entry:
  %retval = alloca i1, align 1
  %this.addr = alloca ptr, align 8
  %m1.addr = alloca ptr, align 8
  %m2.addr = alloca ptr, align 8
  %rest.addr = alloca ptr, align 8
  %i1 = alloca i32, align 4
  %i2 = alloca i32, align 4
  %sz1 = alloca i32, align 4
  %sz2 = alloca i32, align 4
  %var1 = alloca ptr, align 8
  %var2 = alloca ptr, align 8
  store ptr %this, ptr %this.addr, align 8
  store ptr %m1, ptr %m1.addr, align 8
  store ptr %m2, ptr %m2.addr, align 8
  store ptr %rest, ptr %rest.addr, align 8
  %this1 = load ptr, ptr %this.addr, align 8
  store i32 0, ptr %i1, align 4
  store i32 0, ptr %i2, align 4
  %0 = load ptr, ptr %m1.addr, align 8
  %m_vars = getelementptr inbounds %"class.grobner::monomial", ptr %0, i32 0, i32 1
  %call = call noundef i32 @_ZNK6vectorIP4exprLb0EjE4sizeEv(ptr noundef nonnull align 8 dereferenceable(8) %m_vars)
  store i32 %call, ptr %sz1, align 4
  %1 = load ptr, ptr %m2.addr, align 8
  %m_vars2 = getelementptr inbounds %"class.grobner::monomial", ptr %1, i32 0, i32 1
  %call3 = call noundef i32 @_ZNK6vectorIP4exprLb0EjE4sizeEv(ptr noundef nonnull align 8 dereferenceable(8) %m_vars2)
  store i32 %call3, ptr %sz2, align 4
  %2 = load i32, ptr %sz1, align 4
  %3 = load i32, ptr %sz2, align 4
  %cmp = icmp ule i32 %2, %3
  br i1 %cmp, label %if.then, label %if.end27

if.then:                                          ; preds = %entry
  br label %while.body

while.body:                                       ; preds = %if.then23, %if.then18, %if.then
  %4 = load i32, ptr %i1, align 4
  %5 = load i32, ptr %sz1, align 4
  %cmp4 = icmp uge i32 %4, %5
  br i1 %cmp4, label %if.then5, label %if.end

if.then5:                                         ; preds = %while.body
  br label %for.cond

for.cond:                                         ; preds = %for.inc, %if.then5
  %6 = load i32, ptr %i2, align 4
  %7 = load i32, ptr %sz2, align 4
  %cmp6 = icmp ult i32 %6, %7
  br i1 %cmp6, label %for.body, label %for.end

for.body:                                         ; preds = %for.cond
  %8 = load ptr, ptr %rest.addr, align 8
  %9 = load ptr, ptr %m2.addr, align 8
  %m_vars7 = getelementptr inbounds %"class.grobner::monomial", ptr %9, i32 0, i32 1
  %10 = load i32, ptr %i2, align 4
  %call8 = call noundef nonnull align 8 dereferenceable(8) ptr @_ZNK6vectorIP4exprLb0EjEixEj(ptr noundef nonnull align 8 dereferenceable(8) %m_vars7, i32 noundef %10)
  %call9 = call noundef nonnull align 8 dereferenceable(8) ptr @_ZN6vectorIP4exprLb0EjE9push_backERKS1_(ptr noundef nonnull align 8 dereferenceable(8) %8, ptr noundef nonnull align 8 dereferenceable(8) %call8)
  br label %for.inc

for.inc:                                          ; preds = %for.body
  %11 = load i32, ptr %i2, align 4
  %inc = add i32 %11, 1
  store i32 %inc, ptr %i2, align 4
  br label %for.cond, !llvm.loop !22

for.end:                                          ; preds = %for.cond
  store i1 true, ptr %retval, align 1
  br label %return

if.end:                                           ; preds = %while.body
  %12 = load i32, ptr %i2, align 4
  %13 = load i32, ptr %sz2, align 4
  %cmp10 = icmp uge i32 %12, %13
  br i1 %cmp10, label %if.then11, label %if.end12

if.then11:                                        ; preds = %if.end
  br label %while.end

if.end12:                                         ; preds = %if.end
  %14 = load ptr, ptr %m1.addr, align 8
  %m_vars13 = getelementptr inbounds %"class.grobner::monomial", ptr %14, i32 0, i32 1
  %15 = load i32, ptr %i1, align 4
  %call14 = call noundef nonnull align 8 dereferenceable(8) ptr @_ZNK6vectorIP4exprLb0EjEixEj(ptr noundef nonnull align 8 dereferenceable(8) %m_vars13, i32 noundef %15)
  %16 = load ptr, ptr %call14, align 8
  store ptr %16, ptr %var1, align 8
  %17 = load ptr, ptr %m2.addr, align 8
  %m_vars15 = getelementptr inbounds %"class.grobner::monomial", ptr %17, i32 0, i32 1
  %18 = load i32, ptr %i2, align 4
  %call16 = call noundef nonnull align 8 dereferenceable(8) ptr @_ZNK6vectorIP4exprLb0EjEixEj(ptr noundef nonnull align 8 dereferenceable(8) %m_vars15, i32 noundef %18)
  %19 = load ptr, ptr %call16, align 8
  store ptr %19, ptr %var2, align 8
  %20 = load ptr, ptr %var1, align 8
  %21 = load ptr, ptr %var2, align 8
  %cmp17 = icmp eq ptr %20, %21
  br i1 %cmp17, label %if.then18, label %if.end21

if.then18:                                        ; preds = %if.end12
  %22 = load i32, ptr %i1, align 4
  %inc19 = add i32 %22, 1
  store i32 %inc19, ptr %i1, align 4
  %23 = load i32, ptr %i2, align 4
  %inc20 = add i32 %23, 1
  store i32 %inc20, ptr %i2, align 4
  br label %while.body, !llvm.loop !23

if.end21:                                         ; preds = %if.end12
  %m_var_lt = getelementptr inbounds %class.grobner, ptr %this1, i32 0, i32 5
  %24 = load ptr, ptr %var2, align 8
  %25 = load ptr, ptr %var1, align 8
  %call22 = call noundef zeroext i1 @_ZNK7grobner6var_ltclEP4exprS2_(ptr noundef nonnull align 8 dereferenceable(8) %m_var_lt, ptr noundef %24, ptr noundef %25)
  br i1 %call22, label %if.then23, label %if.end26

if.then23:                                        ; preds = %if.end21
  %26 = load i32, ptr %i2, align 4
  %inc24 = add i32 %26, 1
  store i32 %inc24, ptr %i2, align 4
  %27 = load ptr, ptr %rest.addr, align 8
  %call25 = call noundef nonnull align 8 dereferenceable(8) ptr @_ZN6vectorIP4exprLb0EjE9push_backERKS1_(ptr noundef nonnull align 8 dereferenceable(8) %27, ptr noundef nonnull align 8 dereferenceable(8) %var2)
  br label %while.body, !llvm.loop !23

if.end26:                                         ; preds = %if.end21
  br label %while.end

while.end:                                        ; preds = %if.end26, %if.then11
  br label %if.end27

if.end27:                                         ; preds = %while.end, %entry
  store i1 false, ptr %retval, align 1
  br label %return

return:                                           ; preds = %if.end27, %for.end
  %28 = load i1, ptr %retval, align 1
  ret i1 %28
}