; Function Attrs: mustprogress uwtable
define hidden noundef zeroext i1 @_ZNK7grobner9is_subsetEPKNS_8monomialES2_R10ptr_vectorI4exprE(ptr nocapture noundef nonnull readonly align 8 dereferenceable(228) %this, ptr nocapture noundef readonly %m1, ptr nocapture noundef readonly %m2, ptr noundef nonnull align 8 dereferenceable(8) %rest) local_unnamed_addr #3 align 2 {
entry:
  %m_vars = getelementptr inbounds i8, ptr %m1, i64 32
  %0 = load ptr, ptr %m_vars, align 8
  %cmp.i = icmp eq ptr %0, null
  br i1 %cmp.i, label %_ZNK6vectorIP4exprLb0EjE4sizeEv.exit, label %if.end.i

if.end.i:                                         ; preds = %entry
  %arrayidx.i = getelementptr inbounds i8, ptr %0, i64 -4
  %1 = load i32, ptr %arrayidx.i, align 4
  br label %_ZNK6vectorIP4exprLb0EjE4sizeEv.exit

_ZNK6vectorIP4exprLb0EjE4sizeEv.exit:             ; preds = %entry, %if.end.i
  %retval.0.i = phi i32 [ %1, %if.end.i ], [ 0, %entry ]
  %m_vars2 = getelementptr inbounds i8, ptr %m2, i64 32
  %2 = load ptr, ptr %m_vars2, align 8
  %cmp.i18 = icmp eq ptr %2, null
  br i1 %cmp.i18, label %_ZNK6vectorIP4exprLb0EjE4sizeEv.exit22, label %if.end.i19

if.end.i19:                                       ; preds = %_ZNK6vectorIP4exprLb0EjE4sizeEv.exit
  %arrayidx.i20 = getelementptr inbounds i8, ptr %2, i64 -4
  %3 = load i32, ptr %arrayidx.i20, align 4
  br label %_ZNK6vectorIP4exprLb0EjE4sizeEv.exit22

_ZNK6vectorIP4exprLb0EjE4sizeEv.exit22:           ; preds = %_ZNK6vectorIP4exprLb0EjE4sizeEv.exit, %if.end.i19
  %retval.0.i21 = phi i32 [ %3, %if.end.i19 ], [ 0, %_ZNK6vectorIP4exprLb0EjE4sizeEv.exit ]
  %cmp.not = icmp ugt i32 %retval.0.i, %retval.0.i21
  br i1 %cmp.not, label %return, label %while.body.preheader

while.body.preheader:                             ; preds = %_ZNK6vectorIP4exprLb0EjE4sizeEv.exit22
  %cmp4.not57.not = icmp eq i32 %retval.0.i, 0
  br i1 %cmp4.not57.not, label %for.cond.preheader, label %if.end.lr.ph.lr.ph

if.end.lr.ph.lr.ph:                               ; preds = %while.body.preheader
  %m_var_lt = getelementptr inbounds i8, ptr %this, i64 88
  %4 = zext i32 %retval.0.i to i64
  %wide.trip.count = zext i32 %retval.0.i21 to i64
  br label %if.end.lr.ph

if.end.lr.ph:                                     ; preds = %if.end.lr.ph.lr.ph, %if.then18
  %5 = phi ptr [ %2, %if.end.lr.ph.lr.ph ], [ %32, %if.then18 ]
  %6 = phi ptr [ %0, %if.end.lr.ph.lr.ph ], [ %33, %if.then18 ]
  %indvars.iv72 = phi i64 [ 0, %if.end.lr.ph.lr.ph ], [ %indvars.iv.next73, %if.then18 ]
  %cmp4.not60 = phi i1 [ true, %if.end.lr.ph.lr.ph ], [ %cmp4.not, %if.then18 ]
  %i2.0.ph58 = phi i32 [ 0, %if.end.lr.ph.lr.ph ], [ %inc20, %if.then18 ]
  %cmp10.not.us55 = icmp ult i32 %i2.0.ph58, %retval.0.i21
  br i1 %cmp4.not60, label %if.end.lr.ph.split.us, label %if.end.lr.ph.split, !llvm.loop !32

if.end.lr.ph.split.us:                            ; preds = %if.end.lr.ph
  br i1 %cmp10.not.us55, label %if.end12.us.preheader, label %return

if.end12.us.preheader:                            ; preds = %if.end.lr.ph.split.us
  %7 = zext i32 %i2.0.ph58 to i64
  br label %if.end12.us

if.end12.us:                                      ; preds = %if.end12.us.preheader, %_ZN6vectorIP4exprLb0EjE9push_backERKS1_.exit45.us
  %indvars.iv = phi i64 [ %7, %if.end12.us.preheader ], [ %indvars.iv.next, %_ZN6vectorIP4exprLb0EjE9push_backERKS1_.exit45.us ]
  %8 = load ptr, ptr %m_vars, align 8
  %arrayidx.i28.us = getelementptr inbounds ptr, ptr %8, i64 %indvars.iv72
  %9 = load ptr, ptr %arrayidx.i28.us, align 8
  %10 = load ptr, ptr %m_vars2, align 8
  %arrayidx.i30.us = getelementptr inbounds ptr, ptr %10, i64 %indvars.iv
  %11 = load ptr, ptr %arrayidx.i30.us, align 8
  %cmp17.us = icmp eq ptr %9, %11
  br i1 %cmp17.us, label %if.then18.loopexit, label %if.end21.us

if.end21.us:                                      ; preds = %if.end12.us
  %call22.us = tail call noundef zeroext i1 @_ZNK7grobner6var_ltclEP4exprS2_(ptr noundef nonnull align 8 dereferenceable(8) %m_var_lt, ptr noundef %11, ptr noundef %9)
  br i1 %call22.us, label %if.then23.us, label %return

if.then23.us:                                     ; preds = %if.end21.us
  %indvars.iv.next = add nuw nsw i64 %indvars.iv, 1
  %12 = load ptr, ptr %rest, align 8
  %cmp.i31.us = icmp eq ptr %12, null
  br i1 %cmp.i31.us, label %if.then.i41.us, label %lor.lhs.false.i32.us

lor.lhs.false.i32.us:                             ; preds = %if.then23.us
  %arrayidx.i33.us = getelementptr inbounds i8, ptr %12, i64 -4
  %13 = load i32, ptr %arrayidx.i33.us, align 4
  %arrayidx4.i34.us = getelementptr inbounds i8, ptr %12, i64 -8
  %14 = load i32, ptr %arrayidx4.i34.us, align 4
  %cmp5.i35.us = icmp eq i32 %13, %14
  br i1 %cmp5.i35.us, label %if.then.i41.us, label %_ZN6vectorIP4exprLb0EjE9push_backERKS1_.exit45.us

if.then.i41.us:                                   ; preds = %lor.lhs.false.i32.us, %if.then23.us
  tail call void @_ZN6vectorIP4exprLb0EjE13expand_vectorEv(ptr noundef nonnull align 8 dereferenceable(8) %rest)
  %.pre.i42.us = load ptr, ptr %rest, align 8
  %arrayidx8.phi.trans.insert.i43.us = getelementptr inbounds i8, ptr %.pre.i42.us, i64 -4
  %.pre1.i44.us = load i32, ptr %arrayidx8.phi.trans.insert.i43.us, align 4
  br label %_ZN6vectorIP4exprLb0EjE9push_backERKS1_.exit45.us

_ZN6vectorIP4exprLb0EjE9push_backERKS1_.exit45.us: ; preds = %if.then.i41.us, %lor.lhs.false.i32.us
  %15 = phi i32 [ %.pre1.i44.us, %if.then.i41.us ], [ %13, %lor.lhs.false.i32.us ]
  %16 = phi ptr [ %.pre.i42.us, %if.then.i41.us ], [ %12, %lor.lhs.false.i32.us ]
  %idx.ext.i37.us = zext i32 %15 to i64
  %add.ptr.i38.us = getelementptr inbounds ptr, ptr %16, i64 %idx.ext.i37.us
  store ptr %11, ptr %add.ptr.i38.us, align 8
  %17 = load ptr, ptr %rest, align 8
  %arrayidx10.i39.us = getelementptr inbounds i8, ptr %17, i64 -4
  %18 = load i32, ptr %arrayidx10.i39.us, align 4
  %inc.i40.us = add i32 %18, 1
  store i32 %inc.i40.us, ptr %arrayidx10.i39.us, align 4
  %exitcond.not = icmp eq i64 %indvars.iv.next, %wide.trip.count
  br i1 %exitcond.not, label %return, label %if.end12.us

if.end.lr.ph.split:                               ; preds = %if.end.lr.ph
  br i1 %cmp10.not.us55, label %if.end12, label %return

for.cond.preheader:                               ; preds = %if.then18, %while.body.preheader, %_ZN6vectorIP4exprLb0EjE9push_backERKS1_.exit45
  %i2.0.lcssa = phi i32 [ %inc24, %_ZN6vectorIP4exprLb0EjE9push_backERKS1_.exit45 ], [ 0, %while.body.preheader ], [ %inc20, %if.then18 ]
  %cmp662 = icmp ult i32 %i2.0.lcssa, %retval.0.i21
  br i1 %cmp662, label %for.body.preheader, label %return

for.body.preheader:                               ; preds = %for.cond.preheader
  %19 = zext i32 %i2.0.lcssa to i64
  br label %for.body

for.body:                                         ; preds = %for.body.preheader, %_ZN6vectorIP4exprLb0EjE9push_backERKS1_.exit
  %indvars.iv76 = phi i64 [ %19, %for.body.preheader ], [ %indvars.iv.next77, %_ZN6vectorIP4exprLb0EjE9push_backERKS1_.exit ]
  %20 = load ptr, ptr %m_vars2, align 8
  %arrayidx.i23 = getelementptr inbounds ptr, ptr %20, i64 %indvars.iv76
  %21 = load ptr, ptr %rest, align 8
  %cmp.i24 = icmp eq ptr %21, null
  br i1 %cmp.i24, label %if.then.i, label %lor.lhs.false.i

lor.lhs.false.i:                                  ; preds = %for.body
  %arrayidx.i25 = getelementptr inbounds i8, ptr %21, i64 -4
  %22 = load i32, ptr %arrayidx.i25, align 4
  %arrayidx4.i = getelementptr inbounds i8, ptr %21, i64 -8
  %23 = load i32, ptr %arrayidx4.i, align 4
  %cmp5.i = icmp eq i32 %22, %23
  br i1 %cmp5.i, label %if.then.i, label %_ZN6vectorIP4exprLb0EjE9push_backERKS1_.exit

if.then.i:                                        ; preds = %lor.lhs.false.i, %for.body
  tail call void @_ZN6vectorIP4exprLb0EjE13expand_vectorEv(ptr noundef nonnull align 8 dereferenceable(8) %rest)
  %.pre.i = load ptr, ptr %rest, align 8
  %arrayidx8.phi.trans.insert.i = getelementptr inbounds i8, ptr %.pre.i, i64 -4
  %.pre1.i = load i32, ptr %arrayidx8.phi.trans.insert.i, align 4
  br label %_ZN6vectorIP4exprLb0EjE9push_backERKS1_.exit

_ZN6vectorIP4exprLb0EjE9push_backERKS1_.exit:     ; preds = %lor.lhs.false.i, %if.then.i
  %24 = phi i32 [ %.pre1.i, %if.then.i ], [ %22, %lor.lhs.false.i ]
  %25 = phi ptr [ %.pre.i, %if.then.i ], [ %21, %lor.lhs.false.i ]
  %idx.ext.i = zext i32 %24 to i64
  %add.ptr.i = getelementptr inbounds ptr, ptr %25, i64 %idx.ext.i
  %26 = load ptr, ptr %arrayidx.i23, align 8
  store ptr %26, ptr %add.ptr.i, align 8
  %27 = load ptr, ptr %rest, align 8
  %arrayidx10.i = getelementptr inbounds i8, ptr %27, i64 -4
  %28 = load i32, ptr %arrayidx10.i, align 4
  %inc.i = add i32 %28, 1
  store i32 %inc.i, ptr %arrayidx10.i, align 4
  %indvars.iv.next77 = add nuw nsw i64 %indvars.iv76, 1
  %lftr.wideiv = trunc i64 %indvars.iv.next77 to i32
  %exitcond79.not = icmp eq i32 %retval.0.i21, %lftr.wideiv
  br i1 %exitcond79.not, label %return, label %for.body, !llvm.loop !33

if.end12:                                         ; preds = %if.end.lr.ph.split
  %arrayidx.i28 = getelementptr inbounds ptr, ptr %6, i64 %indvars.iv72
  %29 = load ptr, ptr %arrayidx.i28, align 8
  %idxprom.i29 = zext i32 %i2.0.ph58 to i64
  %arrayidx.i30 = getelementptr inbounds ptr, ptr %5, i64 %idxprom.i29
  %30 = load ptr, ptr %arrayidx.i30, align 8
  %cmp17 = icmp eq ptr %29, %30
  br i1 %cmp17, label %if.then18, label %if.end21

if.then18.loopexit:                               ; preds = %if.end12.us
  %31 = trunc i64 %indvars.iv to i32
  br label %if.then18

if.then18:                                        ; preds = %if.then18.loopexit, %if.end12
  %32 = phi ptr [ %5, %if.end12 ], [ %10, %if.then18.loopexit ]
  %33 = phi ptr [ %6, %if.end12 ], [ %8, %if.then18.loopexit ]
  %.us-phi = phi i32 [ %i2.0.ph58, %if.end12 ], [ %31, %if.then18.loopexit ]
  %indvars.iv.next73 = add nuw nsw i64 %indvars.iv72, 1
  %inc20 = add nuw i32 %.us-phi, 1
  %cmp4.not = icmp ult i64 %indvars.iv.next73, %4
  %exitcond75.not = icmp eq i64 %indvars.iv.next73, %4
  br i1 %exitcond75.not, label %for.cond.preheader, label %if.end.lr.ph, !llvm.loop !32

if.end21:                                         ; preds = %if.end12
  %call22 = tail call noundef zeroext i1 @_ZNK7grobner6var_ltclEP4exprS2_(ptr noundef nonnull align 8 dereferenceable(8) %m_var_lt, ptr noundef %30, ptr noundef %29)
  br i1 %call22, label %if.then23, label %return

if.then23:                                        ; preds = %if.end21
  %inc24 = add nuw i32 %i2.0.ph58, 1
  %34 = load ptr, ptr %rest, align 8
  %cmp.i31 = icmp eq ptr %34, null
  br i1 %cmp.i31, label %if.then.i41, label %lor.lhs.false.i32

lor.lhs.false.i32:                                ; preds = %if.then23
  %arrayidx.i33 = getelementptr inbounds i8, ptr %34, i64 -4
  %35 = load i32, ptr %arrayidx.i33, align 4
  %arrayidx4.i34 = getelementptr inbounds i8, ptr %34, i64 -8
  %36 = load i32, ptr %arrayidx4.i34, align 4
  %cmp5.i35 = icmp eq i32 %35, %36
  br i1 %cmp5.i35, label %if.then.i41, label %_ZN6vectorIP4exprLb0EjE9push_backERKS1_.exit45

if.then.i41:                                      ; preds = %lor.lhs.false.i32, %if.then23
  tail call void @_ZN6vectorIP4exprLb0EjE13expand_vectorEv(ptr noundef nonnull align 8 dereferenceable(8) %rest)
  %.pre.i42 = load ptr, ptr %rest, align 8
  %arrayidx8.phi.trans.insert.i43 = getelementptr inbounds i8, ptr %.pre.i42, i64 -4
  %.pre1.i44 = load i32, ptr %arrayidx8.phi.trans.insert.i43, align 4
  br label %_ZN6vectorIP4exprLb0EjE9push_backERKS1_.exit45

_ZN6vectorIP4exprLb0EjE9push_backERKS1_.exit45:   ; preds = %lor.lhs.false.i32, %if.then.i41
  %37 = phi i32 [ %.pre1.i44, %if.then.i41 ], [ %35, %lor.lhs.false.i32 ]
  %38 = phi ptr [ %.pre.i42, %if.then.i41 ], [ %34, %lor.lhs.false.i32 ]
  %idx.ext.i37 = zext i32 %37 to i64
  %add.ptr.i38 = getelementptr inbounds ptr, ptr %38, i64 %idx.ext.i37
  store ptr %30, ptr %add.ptr.i38, align 8
  %39 = load ptr, ptr %rest, align 8
  %arrayidx10.i39 = getelementptr inbounds i8, ptr %39, i64 -4
  %40 = load i32, ptr %arrayidx10.i39, align 4
  %inc.i40 = add i32 %40, 1
  store i32 %inc.i40, ptr %arrayidx10.i39, align 4
  br label %for.cond.preheader

return:                                           ; preds = %if.end.lr.ph.split.us, %if.end.lr.ph.split, %_ZN6vectorIP4exprLb0EjE9push_backERKS1_.exit45.us, %if.end21.us, %_ZN6vectorIP4exprLb0EjE9push_backERKS1_.exit, %if.end21, %for.cond.preheader, %_ZNK6vectorIP4exprLb0EjE4sizeEv.exit22
  %retval.0 = phi i1 [ false, %_ZNK6vectorIP4exprLb0EjE4sizeEv.exit22 ], [ true, %for.cond.preheader ], [ false, %if.end21 ], [ true, %_ZN6vectorIP4exprLb0EjE9push_backERKS1_.exit ], [ false, %if.end21.us ], [ false, %_ZN6vectorIP4exprLb0EjE9push_backERKS1_.exit45.us ], [ false, %if.end.lr.ph.split ], [ false, %if.end.lr.ph.split.us ]
  ret i1 %retval.0
}